; Function Attrs: mustprogress nofree nounwind willreturn memory(write, argmem: readwrite) uwtable
define dso_local noundef zeroext i1 @_Z16matrixToEulerXYZRK11btMatrix3x3R9btVector3(ptr noundef nonnull readonly align 4 captures(none) dereferenceable(48) %0, ptr noundef nonnull writeonly align 4 captures(none) dereferenceable(16) initializes((0, 12)) %1) local_unnamed_addr #6 {
  %3 = getelementptr inbounds nuw i8, ptr %0, i64 32
  %4 = load float, ptr %3, align 4, !tbaa !10
  %5 = fcmp olt float %4, 1.000000e+00
  br i1 %5, label %6, label %33

6:                                                ; preds = %2
  %7 = fcmp ogt float %4, -1.000000e+00
  br i1 %7, label %8, label %25

8:                                                ; preds = %6
  %9 = getelementptr inbounds nuw i8, ptr %0, i64 36
  %10 = load float, ptr %9, align 4, !tbaa !10
  %11 = fneg float %10
  %12 = getelementptr inbounds nuw i8, ptr %0, i64 40
  %13 = load float, ptr %12, align 4, !tbaa !10
  %14 = tail call noundef float @atan2f(float noundef %11, float noundef %13) #24, !tbaa !56
  store float %14, ptr %1, align 4, !tbaa !10
  %15 = load float, ptr %3, align 4, !tbaa !10
  %16 = fcmp olt float %15, -1.000000e+00
  %.0.i = select i1 %16, float -1.000000e+00, float %15
  %17 = fcmp ogt float %.0.i, 1.000000e+00
  %.1.i = select i1 %17, float 1.000000e+00, float %.0.i
  %18 = tail call noundef float @asinf(float noundef %.1.i) #24, !tbaa !56
  %19 = getelementptr inbounds nuw i8, ptr %1, i64 4
  store float %18, ptr %19, align 4, !tbaa !10
  %20 = getelementptr inbounds nuw i8, ptr %0, i64 16
  %21 = load float, ptr %20, align 4, !tbaa !10
  %22 = fneg float %21
  %23 = load float, ptr %0, align 4, !tbaa !10
  %24 = tail call noundef float @atan2f(float noundef %22, float noundef %23) #24, !tbaa !56
  br label %40

25:                                               ; preds = %6
  %26 = getelementptr inbounds nuw i8, ptr %0, i64 4
  %27 = load float, ptr %26, align 4, !tbaa !10
  %28 = getelementptr inbounds nuw i8, ptr %0, i64 20
  %29 = load float, ptr %28, align 4, !tbaa !10
  %30 = tail call noundef float @atan2f(float noundef %27, float noundef %29) #24, !tbaa !56
  %31 = fneg float %30
  store float %31, ptr %1, align 4, !tbaa !10
  %32 = getelementptr inbounds nuw i8, ptr %1, i64 4
  store float 0xBFF921FB60000000, ptr %32, align 4, !tbaa !10
  br label %40

33:                                               ; preds = %2
  %34 = getelementptr inbounds nuw i8, ptr %0, i64 4
  %35 = load float, ptr %34, align 4, !tbaa !10
  %36 = getelementptr inbounds nuw i8, ptr %0, i64 20
  %37 = load float, ptr %36, align 4, !tbaa !10
  %38 = tail call noundef float @atan2f(float noundef %35, float noundef %37) #24, !tbaa !56
  store float %38, ptr %1, align 4, !tbaa !10
  %39 = getelementptr inbounds nuw i8, ptr %1, i64 4
  store float 0x3FF921FB60000000, ptr %39, align 4, !tbaa !10
  br label %40

40:                                               ; preds = %33, %25, %8
  %.sink = phi float [ 0.000000e+00, %33 ], [ 0.000000e+00, %25 ], [ %24, %8 ]
  %.0 = phi i1 [ false, %33 ], [ false, %25 ], [ true, %8 ]
  %41 = getelementptr inbounds nuw i8, ptr %1, i64 8
  store float %.sink, ptr %41, align 4, !tbaa !10
  ret i1 %.0
}